EXPORTS
    DllMain @1
    _ZN4alib2ng10LogFactory15getContentColorEv @2
    _ZN4alib2ng10LogFactory15setContentColorEi @3
    _ZN4alib2ng10LogFactory3logEiRKNSt7__cxx1112basic_stringIcSt11char_traitsIcESaIcEEE @4
    _ZN4alib2ng10LogFactory4infoERKNSt7__cxx1112basic_stringIcSt11char_traitsIcESaIcEEE @5
    _ZN4alib2ng10LogFactory4warnERKNSt7__cxx1112basic_stringIcSt11char_traitsIcESaIcEEE @6
    _ZN4alib2ng10LogFactory5debugERKNSt7__cxx1112basic_stringIcSt11char_traitsIcESaIcEEE @7
    _ZN4alib2ng10LogFactory5errorERKNSt7__cxx1112basic_stringIcSt11char_traitsIcESaIcEEE @8
    _ZN4alib2ng10LogFactory5traceERKNSt7__cxx1112basic_stringIcSt11char_traitsIcESaIcEEE @9
    _ZN4alib2ng10LogFactory8criticalERKNSt7__cxx1112basic_stringIcSt11char_traitsIcESaIcEEE @10
    _ZN4alib2ng10LogFactoryC1ERKNSt7__cxx1112basic_stringIcSt11char_traitsIcESaIcEEE @11
    _ZN4alib2ng10LogFactoryC1ERKNSt7__cxx1112basic_stringIcSt11char_traitsIcESaIcEEERNS0_6LoggerE @12
    _ZN4alib2ng10LogFactoryC2ERKNSt7__cxx1112basic_stringIcSt11char_traitsIcESaIcEEE @13
    _ZN4alib2ng10LogFactoryC2ERKNSt7__cxx1112basic_stringIcSt11char_traitsIcESaIcEEERNS0_6LoggerE @14
    _ZN4alib2ng10LogFactoryclEii @15
    _ZN4alib2ng10LogFactorylsEN3glm3matILi2ELi2EfLNS2_9qualifierE0EEE @16
    _ZN4alib2ng10LogFactorylsEN3glm3matILi3ELi3EfLNS2_9qualifierE0EEE @17
    _ZN4alib2ng10LogFactorylsEN3glm3matILi4ELi4EfLNS2_9qualifierE0EEE @18
    _ZN4alib2ng10LogFactorylsEN3glm3quaIfLNS2_9qualifierE0EEE @19
    _ZN4alib2ng10LogFactorylsEN3glm3vecILi1EfLNS2_9qualifierE0EEE @20
    _ZN4alib2ng10LogFactorylsEN3glm3vecILi2EfLNS2_9qualifierE0EEE @21
    _ZN4alib2ng10LogFactorylsEN3glm3vecILi3EfLNS2_9qualifierE0EEE @22
    _ZN4alib2ng10LogFactorylsEN3glm3vecILi4EfLNS2_9qualifierE0EEE @23
    _ZN4alib2ng10LogFactorylsEPFvNS0_6LogEndEE @24
    _ZN4alib2ng10LogFactorylsERKNSt7__cxx1112basic_stringIcSt11char_traitsIcESaIcEEE @25
    _ZN4alib2ng10LogFactorylsEc @26
    _ZN4alib2ng10LogFactorylsEd @27
    _ZN4alib2ng10LogFactorylsEf @28
    _ZN4alib2ng10LogFactorylsEi @29
    _ZN4alib2ng10LogFactorylsEj @30
    _ZN4alib2ng10LogFactorylsEl @31
    _ZN4alib2ng10LogFactorylsEm @32
    _ZN4alib2ng10Translator13setDefaultKeyERKNSt7__cxx1112basic_stringIcSt11char_traitsIcESaIcEEE @33
    _ZN4alib2ng10Translator13translate_defERKNSt7__cxx1112basic_stringIcSt11char_traitsIcESaIcEEES9_i @34
    _ZN4alib2ng10Translator14setAccessTokenERKNSt7__cxx1112basic_stringIcSt11char_traitsIcESaIcEEE @35
    _ZN4alib2ng10Translator14setVerifyTokenERKNSt7__cxx1112basic_stringIcSt11char_traitsIcESaIcEEE @36
    _ZN4alib2ng10Translator14translate_argsERKNSt7__cxx1112basic_stringIcSt11char_traitsIcESaIcEEEiRNS3_IwS4_IwESaIwEEEz @37
    _ZN4alib2ng10Translator14translate_argsERKNSt7__cxx1112basic_stringIcSt11char_traitsIcESaIcEEEiRS7_iz @38
    _ZN4alib2ng10Translator15loadTranslationERKNSt7__cxx1112basic_stringIcSt11char_traitsIcESaIcEEE @39
    _ZN4alib2ng10Translator16translate_staticERKNSt7__cxx1112basic_stringIcSt11char_traitsIcESaIcEEEi @40
    _ZN4alib2ng10Translator18translate_args_defERKNSt7__cxx1112basic_stringIcSt11char_traitsIcESaIcEEES9_iz @41
    _ZN4alib2ng10Translator20readTranslationFilesERKNSt7__cxx1112basic_stringIcSt11char_traitsIcESaIcEEEi @42
    _ZN4alib2ng10Translator20translate_args_vlistERKNSt7__cxx1112basic_stringIcSt11char_traitsIcESaIcEEEiRNS3_IwS4_IwESaIwEEEPc @43
    _ZN4alib2ng10Translator20translate_args_vlistERKNSt7__cxx1112basic_stringIcSt11char_traitsIcESaIcEEEiRS7_iPc @44
    _ZN4alib2ng10Translator21translate_args_staticERKNSt7__cxx1112basic_stringIcSt11char_traitsIcESaIcEEEiRNS3_IwS4_IwESaIwEEEz @45
    _ZN4alib2ng10Translator21translate_args_staticERKNSt7__cxx1112basic_stringIcSt11char_traitsIcESaIcEEEiRS7_iz @46
    _ZN4alib2ng10Translator23translate_args_internalERKNSt7__cxx1112basic_stringIcSt11char_traitsIcESaIcEEERS7_Pc @47
    _ZN4alib2ng10Translator3getEv @48
    _ZN4alib2ng10Translator3setEPS1_ @49
    _ZN4alib2ng10Translator8instanceE @50 DATA
    _ZN4alib2ng10Translator9translateERKNSt7__cxx1112basic_stringIcSt11char_traitsIcESaIcEEEi @51
    _ZN4alib2ng10TranslatorC1EbRKNSt7__cxx1112basic_stringIcSt11char_traitsIcESaIcEEE @52
    _ZN4alib2ng10TranslatorC2EbRKNSt7__cxx1112basic_stringIcSt11char_traitsIcESaIcEEE @53
    _ZN4alib2ng12CriticalLockC1ER21_RTL_CRITICAL_SECTION @54
    _ZN4alib2ng12CriticalLockC2ER21_RTL_CRITICAL_SECTION @55
    _ZN4alib2ng12CriticalLockD1Ev @56
    _ZN4alib2ng12CriticalLockD2Ev @57
    _ZN4alib2ng4GDoc12clearMappingEv @58
    _ZN4alib2ng4GDoc18read_parseFileJSONERKNSt7__cxx1112basic_stringIcSt11char_traitsIcESaIcEEE @59
    _ZN4alib2ng4GDoc18read_parseFileTOMLERKNSt7__cxx1112basic_stringIcSt11char_traitsIcESaIcEEE @60
    _ZN4alib2ng4GDoc20read_parseStringJSONERKNSt7__cxx1112basic_stringIcSt11char_traitsIcESaIcEEE @61
    _ZN4alib2ng4GDoc20read_parseStringTOMLERKNSt7__cxx1112basic_stringIcSt11char_traitsIcESaIcEEE @62
    _ZN4alib2ng4GDoc3getERKNSt7__cxx1112basic_stringIcSt11char_traitsIcESaIcEEE @63
    _ZN4alib2ng4GDocC1Ev @64
    _ZN4alib2ng4GDocC2Ev @65
    _ZN4alib2ng4GDocD1Ev @66
    _ZN4alib2ng4GDocD2Ev @67
    _ZN4alib2ng4GDocixERKNSt7__cxx1112basic_stringIcSt11char_traitsIcESaIcEEE @68
    _ZN4alib2ng4Util10io_readAllERKNSt7__cxx1112basic_stringIcSt11char_traitsIcESaIcEEERS7_ @69
    _ZN4alib2ng4Util10io_readAllERSt14basic_ifstreamIcSt11char_traitsIcEERNSt7__cxx1112basic_stringIcS4_SaIcEEE @70
    _ZN4alib2ng4Util10ot_getTimeB5cxx11Ev @71
    _ZN4alib2ng4Util11io_fileSizeERKNSt7__cxx1112basic_stringIcSt11char_traitsIcESaIcEEE @72
    _ZN4alib2ng4Util11io_writeAllERKNSt7__cxx1112basic_stringIcSt11char_traitsIcESaIcEEES9_ @73
    _ZN4alib2ng4Util11str_trim_rtERNSt7__cxx1112basic_stringIcSt11char_traitsIcESaIcEEE @74
    _ZN4alib2ng4Util12str_trim_nrtERNSt7__cxx1112basic_stringIcSt11char_traitsIcESaIcEEE @75
    _ZN4alib2ng4Util12str_unescapeERKNSt7__cxx1112basic_stringIcSt11char_traitsIcESaIcEEE @76
    _ZN4alib2ng4Util12sys_GetCPUIdB5cxx11Ev @77
    _ZN4alib2ng4Util13io_printColorERKNSt7__cxx1112basic_stringIcSt11char_traitsIcESaIcEEEi @78
    _ZN4alib2ng4Util16io_traverseFilesERKNSt7__cxx1112basic_stringIcSt11char_traitsIcESaIcEEERSt6vectorIS7_SaIS7_EE @79
    _ZN4alib2ng4Util17io_checkExistenceERKNSt7__cxx1112basic_stringIcSt11char_traitsIcESaIcEEE @80
    _ZN4alib2ng4Util17ot_formatDurationB5cxx11Ei @81
    _ZN4alib2ng4Util17str_encAnsiToUTF8ERKNSt7__cxx1112basic_stringIcSt11char_traitsIcESaIcEEE @82
    _ZN4alib2ng4Util17str_encUTF8ToAnsiERKNSt7__cxx1112basic_stringIcSt11char_traitsIcESaIcEEE @83
    _ZN4alib2ng4Util24sys_getGlobalMemoryUsageEv @84
    _ZN4alib2ng4Util25sys_getProgramMemoryUsageEv @85
    _ZN4alib2ng4Util9str_splitERKNSt7__cxx1112basic_stringIcSt11char_traitsIcESaIcEEES9_RSt6vectorIS7_SaIS7_EE @86
    _ZN4alib2ng4Util9str_splitERKNSt7__cxx1112basic_stringIcSt11char_traitsIcESaIcEEEcRSt6vectorIS7_SaIS7_EE @87
    _ZN4alib2ng5Clock10getAllTimeEv @88
    _ZN4alib2ng5Clock11clearOffsetEv @89
    _ZN4alib2ng5Clock11static_lockE @90 DATA
    _ZN4alib2ng5Clock11toggleTimerEb @91
    _ZN4alib2ng5Clock3nowEv @92
    _ZN4alib2ng5Clock4stopEv @93
    _ZN4alib2ng5Clock5pauseEv @94
    _ZN4alib2ng5Clock5startEv @95
    _ZN4alib2ng5Clock6isStopEv @96
    _ZN4alib2ng5Clock6resumeEv @97
    _ZN4alib2ng5Clock8m_cpuFeqE @98 DATA
    _ZN4alib2ng5Clock9HTimerSupE @99 DATA
    _ZN4alib2ng5Clock9getOffsetEv @100
    _ZN4alib2ng5ClockC1Ebb @101
    _ZN4alib2ng5ClockC2Ebb @102
    _ZN4alib2ng6Logger13setOutputFileERKNSt7__cxx1112basic_stringIcSt11char_traitsIcESaIcEEE @103
    _ZN4alib2ng6Logger15getLoggerStatusEv @104
    _ZN4alib2ng6Logger18getLogVisibilitiesEv @105
    _ZN4alib2ng6Logger18setLogVisibilitiesEi @106
    _ZN4alib2ng6Logger19toggleConsoleOutputEb @107
    _ZN4alib2ng6Logger3getEv @108
    _ZN4alib2ng6Logger3logEiRKNSt7__cxx1112basic_stringIcSt11char_traitsIcESaIcEEES9_ @109
    _ZN4alib2ng6Logger3setEPS1_ @110
    _ZN4alib2ng6Logger5closeEv @111
    _ZN4alib2ng6Logger5flushEv @112
    _ZN4alib2ng6Logger7genTypeEi @113
    _ZN4alib2ng6Logger7getModeEv @114
    _ZN4alib2ng6Logger7makeMsgEiRKNSt7__cxx1112basic_stringIcSt11char_traitsIcESaIcEEES9_b @115
    _ZN4alib2ng6Logger7setModeEi @116
    _ZN4alib2ng6Logger8instanceE @117 DATA
    _ZN4alib2ng6LoggerC1Ebbi @118
    _ZN4alib2ng6LoggerC2Ebbi @119
    _ZN4alib2ng6LoggerD1Ev @120
    _ZN4alib2ng6LoggerD2Ev @121
    _ZN4alib2ng6endlogENS0_6LogEndE @122
    _ZN4alib2ng7CPUInfoC1Ev @123
    _ZN4alib2ng7CPUInfoC2Ev @124
    _ZN4alib2ng7Trigger11setDurationEd @125
    _ZN4alib2ng7Trigger4testEb @126
    _ZN4alib2ng7Trigger5resetEv @127
    _ZN4alib2ng7Trigger8setClockERNS0_5ClockE @128
    _ZN4alib2ng7TriggerC1ERNS0_5ClockEd @129
    _ZN4alib2ng7TriggerC2ERNS0_5ClockEd @130
    _ZN4alib2ng8Analyser11mapDocumentEv @131
    _ZN4alib2ng8Analyser11parseStringERKNSt7__cxx1112basic_stringIcSt11char_traitsIcESaIcEEE @132
    _ZN4alib2ng8Analyser7getCopyERKNSt7__cxx1112basic_stringIcSt11char_traitsIcESaIcEEE @133
    _ZN4alib2ng8Analyser8getConstERKNSt7__cxx1112basic_stringIcSt11char_traitsIcESaIcEEE @134
    _ZN4alib2ng8Analyser9empty_retB5cxx11E @135 DATA
    _ZN4alib2ng8AnalyserC1ERSt13unordered_mapINSt7__cxx1112basic_stringIcSt11char_traitsIcESaIcEEES8_St4hashIS8_ESt8equal_toIS8_ESaISt4pairIKS8_S8_EEE @136
    _ZN4alib2ng8AnalyserC2ERSt13unordered_mapINSt7__cxx1112basic_stringIcSt11char_traitsIcESaIcEEES8_St4hashIS8_ESt8equal_toIS8_ESaISt4pairIKS8_S8_EEE @137
    _ZN4alib2ng8AnalyserD0Ev @138
    _ZN4alib2ng8AnalyserD1Ev @139
    _ZN4alib2ng8AnalyserD2Ev @140
    _ZN4alib2ng9converter12ansi_to_utf8ERKNSt7__cxx1112basic_stringIcSt11char_traitsIcESaIcEEE @141
    _ZN4alib2ng9converter12utf8_to_ansiERKNSt7__cxx1112basic_stringIcSt11char_traitsIcESaIcEEE @142
    _ZN4alib2ng9converter13ansi_to_utf16ERKNSt7__cxx1112basic_stringIcSt11char_traitsIcESaIcEEE @143
    _ZN4alib2ng9converter13utf16_to_ansiERKNSt7__cxx1112basic_stringIwSt11char_traitsIwESaIwEEE @144
    _ZN4alib2ng9converter13utf16_to_utf8ERKNSt7__cxx1112basic_stringIwSt11char_traitsIwESaIwEEE @145
    _ZN4alib2ng9converter13utf8_to_utf16ERKNSt7__cxx1112basic_stringIcSt11char_traitsIcESaIcEEE @146
    _ZTIN4alib2ng8AnalyserE @147 DATA
    _ZTVN4alib2ng8AnalyserE @148 DATA
